target datalayout = "e-m:e-p270:32:32-p271:32:32-p272:64:64-i64:64-f80:128-n8:16:32:64-S128"
target triple = "x86_64-pc-linux-gnu"

@.str = private unnamed_addr constant [3 x i8] c"%d\00", align 1
@n = common dso_local global i32 0, align 4
@.str.1 = private unnamed_addr constant [3 x i8] c"%c\00", align 1
@room = common dso_local global [102 x [102 x i32]] zeroinitializer, align 16
@m = common dso_local global i32 0, align 4
@sum = common dso_local global i32 0, align 4
@.str.2 = private unnamed_addr constant [4 x i8] c"%d\0A\00", align 1

; Function Attrs: noinline nounwind uwtable
define dso_local i32 @main() #0 {
  %1 = alloca i32, align 4
  %2 = alloca i32, align 4
  %3 = alloca i32, align 4
  %4 = alloca i32, align 4
  %5 = alloca i8, align 1
  store i32 0, i32* %1, align 4
  %6 = call i32 (i8*, ...) @__isoc99_scanf(i8* getelementptr inbounds ([3 x i8], [3 x i8]* @.str, i64 0, i64 0), i32* @n)
  store i32 1, i32* %2, align 4
  br label %7

7:                                                ; preds = %58, %0
  %8 = load i32, i32* %2, align 4
  %9 = load i32, i32* @n, align 4
  %10 = icmp sle i32 %8, %9
  br i1 %10, label %11, label %61

11:                                               ; preds = %7
  %12 = call i32 (i8*, ...) @__isoc99_scanf(i8* getelementptr inbounds ([3 x i8], [3 x i8]* @.str.1, i64 0, i64 0), i8* %5)
  store i32 1, i32* %3, align 4
  br label %13

13:                                               ; preds = %54, %11
  %14 = load i32, i32* %3, align 4
  %15 = load i32, i32* @n, align 4
  %16 = icmp sle i32 %14, %15
  br i1 %16, label %17, label %57

17:                                               ; preds = %13
  %18 = call i32 (i8*, ...) @__isoc99_scanf(i8* getelementptr inbounds ([3 x i8], [3 x i8]* @.str.1, i64 0, i64 0), i8* %5)
  %19 = load i8, i8* %5, align 1
  %20 = sext i8 %19 to i32
  %21 = icmp eq i32 %20, 35
  br i1 %21, label %22, label %29

22:                                               ; preds = %17
  %23 = load i32, i32* %2, align 4
  %24 = sext i32 %23 to i64
  %25 = getelementptr inbounds [102 x [102 x i32]], [102 x [102 x i32]]* @room, i64 0, i64 %24
  %26 = load i32, i32* %3, align 4
  %27 = sext i32 %26 to i64
  %28 = getelementptr inbounds [102 x i32], [102 x i32]* %25, i64 0, i64 %27
  store i32 -1, i32* %28, align 4
  br label %53

29:                                               ; preds = %17
  %30 = load i8, i8* %5, align 1
  %31 = sext i8 %30 to i32
  %32 = icmp eq i32 %31, 46
  br i1 %32, label %33, label %40

33:                                               ; preds = %29
  %34 = load i32, i32* %2, align 4
  %35 = sext i32 %34 to i64
  %36 = getelementptr inbounds [102 x [102 x i32]], [102 x [102 x i32]]* @room, i64 0, i64 %35
  %37 = load i32, i32* %3, align 4
  %38 = sext i32 %37 to i64
  %39 = getelementptr inbounds [102 x i32], [102 x i32]* %36, i64 0, i64 %38
  store i32 0, i32* %39, align 4
  br label %52

40:                                               ; preds = %29
  %41 = load i8, i8* %5, align 1
  %42 = sext i8 %41 to i32
  %43 = icmp eq i32 %42, 64
  br i1 %43, label %44, label %51

44:                                               ; preds = %40
  %45 = load i32, i32* %2, align 4
  %46 = sext i32 %45 to i64
  %47 = getelementptr inbounds [102 x [102 x i32]], [102 x [102 x i32]]* @room, i64 0, i64 %46
  %48 = load i32, i32* %3, align 4
  %49 = sext i32 %48 to i64
  %50 = getelementptr inbounds [102 x i32], [102 x i32]* %47, i64 0, i64 %49
  store i32 1, i32* %50, align 4
  br label %51

51:                                               ; preds = %44, %40
  br label %52

52:                                               ; preds = %51, %33
  br label %53

53:                                               ; preds = %52, %22
  br label %54

54:                                               ; preds = %53
  %55 = load i32, i32* %3, align 4
  %56 = add nsw i32 %55, 1
  store i32 %56, i32* %3, align 4
  br label %13

57:                                               ; preds = %13
  br label %58

58:                                               ; preds = %57
  %59 = load i32, i32* %2, align 4
  %60 = add nsw i32 %59, 1
  store i32 %60, i32* %2, align 4
  br label %7

61:                                               ; preds = %7
  store i32 0, i32* %2, align 4
  br label %62

62:                                               ; preds = %89, %61
  %63 = load i32, i32* %2, align 4
  %64 = load i32, i32* @n, align 4
  %65 = add nsw i32 %64, 1
  %66 = icmp sle i32 %63, %65
  br i1 %66, label %67, label %92

67:                                               ; preds = %62
  %68 = load i32, i32* @n, align 4
  %69 = add nsw i32 %68, 1
  %70 = sext i32 %69 to i64
  %71 = getelementptr inbounds [102 x [102 x i32]], [102 x [102 x i32]]* @room, i64 0, i64 %70
  %72 = load i32, i32* %2, align 4
  %73 = sext i32 %72 to i64
  %74 = getelementptr inbounds [102 x i32], [102 x i32]* %71, i64 0, i64 %73
  store i32 -1, i32* %74, align 4
  %75 = load i32, i32* %2, align 4
  %76 = sext i32 %75 to i64
  %77 = getelementptr inbounds [102 x [102 x i32]], [102 x [102 x i32]]* @room, i64 0, i64 %76
  %78 = load i32, i32* @n, align 4
  %79 = add nsw i32 %78, 1
  %80 = sext i32 %79 to i64
  %81 = getelementptr inbounds [102 x i32], [102 x i32]* %77, i64 0, i64 %80
  store i32 -1, i32* %81, align 4
  %82 = load i32, i32* %2, align 4
  %83 = sext i32 %82 to i64
  %84 = getelementptr inbounds [102 x i32], [102 x i32]* getelementptr inbounds ([102 x [102 x i32]], [102 x [102 x i32]]* @room, i64 0, i64 0), i64 0, i64 %83
  store i32 -1, i32* %84, align 4
  %85 = load i32, i32* %2, align 4
  %86 = sext i32 %85 to i64
  %87 = getelementptr inbounds [102 x [102 x i32]], [102 x [102 x i32]]* @room, i64 0, i64 %86
  %88 = getelementptr inbounds [102 x i32], [102 x i32]* %87, i64 0, i64 0
  store i32 -1, i32* %88, align 8
  br label %89

89:                                               ; preds = %67
  %90 = load i32, i32* %2, align 4
  %91 = add nsw i32 %90, 1
  store i32 %91, i32* %2, align 4
  br label %62

92:                                               ; preds = %62
  %93 = call i32 (i8*, ...) @__isoc99_scanf(i8* getelementptr inbounds ([3 x i8], [3 x i8]* @.str, i64 0, i64 0), i32* @m)
  store i32 1, i32* %4, align 4
  br label %94

94:                                               ; preds = %208, %92
  %95 = load i32, i32* %4, align 4
  %96 = load i32, i32* @m, align 4
  %97 = icmp slt i32 %95, %96
  br i1 %97, label %98, label %211

98:                                               ; preds = %94
  store i32 1, i32* %2, align 4
  br label %99

99:                                               ; preds = %204, %98
  %100 = load i32, i32* %2, align 4
  %101 = load i32, i32* @n, align 4
  %102 = icmp sle i32 %100, %101
  br i1 %102, label %103, label %207

103:                                              ; preds = %99
  store i32 1, i32* %3, align 4
  br label %104

104:                                              ; preds = %200, %103
  %105 = load i32, i32* %3, align 4
  %106 = load i32, i32* @n, align 4
  %107 = icmp sle i32 %105, %106
  br i1 %107, label %108, label %203

108:                                              ; preds = %104
  %109 = load i32, i32* %2, align 4
  %110 = sext i32 %109 to i64
  %111 = getelementptr inbounds [102 x [102 x i32]], [102 x [102 x i32]]* @room, i64 0, i64 %110
  %112 = load i32, i32* %3, align 4
  %113 = sext i32 %112 to i64
  %114 = getelementptr inbounds [102 x i32], [102 x i32]* %111, i64 0, i64 %113
  %115 = load i32, i32* %114, align 4
  %116 = load i32, i32* %4, align 4
  %117 = icmp eq i32 %115, %116
  br i1 %117, label %118, label %199

118:                                              ; preds = %108
  %119 = load i32, i32* %2, align 4
  %120 = add nsw i32 %119, 1
  %121 = sext i32 %120 to i64
  %122 = getelementptr inbounds [102 x [102 x i32]], [102 x [102 x i32]]* @room, i64 0, i64 %121
  %123 = load i32, i32* %3, align 4
  %124 = sext i32 %123 to i64
  %125 = getelementptr inbounds [102 x i32], [102 x i32]* %122, i64 0, i64 %124
  %126 = load i32, i32* %125, align 4
  %127 = icmp eq i32 %126, 0
  br i1 %127, label %128, label %138

128:                                              ; preds = %118
  %129 = load i32, i32* %4, align 4
  %130 = add nsw i32 %129, 1
  %131 = load i32, i32* %2, align 4
  %132 = add nsw i32 %131, 1
  %133 = sext i32 %132 to i64
  %134 = getelementptr inbounds [102 x [102 x i32]], [102 x [102 x i32]]* @room, i64 0, i64 %133
  %135 = load i32, i32* %3, align 4
  %136 = sext i32 %135 to i64
  %137 = getelementptr inbounds [102 x i32], [102 x i32]* %134, i64 0, i64 %136
  store i32 %130, i32* %137, align 4
  br label %138

138:                                              ; preds = %128, %118
  %139 = load i32, i32* %2, align 4
  %140 = sub nsw i32 %139, 1
  %141 = sext i32 %140 to i64
  %142 = getelementptr inbounds [102 x [102 x i32]], [102 x [102 x i32]]* @room, i64 0, i64 %141
  %143 = load i32, i32* %3, align 4
  %144 = sext i32 %143 to i64
  %145 = getelementptr inbounds [102 x i32], [102 x i32]* %142, i64 0, i64 %144
  %146 = load i32, i32* %145, align 4
  %147 = icmp eq i32 %146, 0
  br i1 %147, label %148, label %158

148:                                              ; preds = %138
  %149 = load i32, i32* %4, align 4
  %150 = add nsw i32 %149, 1
  %151 = load i32, i32* %2, align 4
  %152 = sub nsw i32 %151, 1
  %153 = sext i32 %152 to i64
  %154 = getelementptr inbounds [102 x [102 x i32]], [102 x [102 x i32]]* @room, i64 0, i64 %153
  %155 = load i32, i32* %3, align 4
  %156 = sext i32 %155 to i64
  %157 = getelementptr inbounds [102 x i32], [102 x i32]* %154, i64 0, i64 %156
  store i32 %150, i32* %157, align 4
  br label %158

158:                                              ; preds = %148, %138
  %159 = load i32, i32* %2, align 4
  %160 = sext i32 %159 to i64
  %161 = getelementptr inbounds [102 x [102 x i32]], [102 x [102 x i32]]* @room, i64 0, i64 %160
  %162 = load i32, i32* %3, align 4
  %163 = add nsw i32 %162, 1
  %164 = sext i32 %163 to i64
  %165 = getelementptr inbounds [102 x i32], [102 x i32]* %161, i64 0, i64 %164
  %166 = load i32, i32* %165, align 4
  %167 = icmp eq i32 %166, 0
  br i1 %167, label %168, label %178

168:                                              ; preds = %158
  %169 = load i32, i32* %4, align 4
  %170 = add nsw i32 %169, 1
  %171 = load i32, i32* %2, align 4
  %172 = sext i32 %171 to i64
  %173 = getelementptr inbounds [102 x [102 x i32]], [102 x [102 x i32]]* @room, i64 0, i64 %172
  %174 = load i32, i32* %3, align 4
  %175 = add nsw i32 %174, 1
  %176 = sext i32 %175 to i64
  %177 = getelementptr inbounds [102 x i32], [102 x i32]* %173, i64 0, i64 %176
  store i32 %170, i32* %177, align 4
  br label %178

178:                                              ; preds = %168, %158
  %179 = load i32, i32* %2, align 4
  %180 = sext i32 %179 to i64
  %181 = getelementptr inbounds [102 x [102 x i32]], [102 x [102 x i32]]* @room, i64 0, i64 %180
  %182 = load i32, i32* %3, align 4
  %183 = sub nsw i32 %182, 1
  %184 = sext i32 %183 to i64
  %185 = getelementptr inbounds [102 x i32], [102 x i32]* %181, i64 0, i64 %184
  %186 = load i32, i32* %185, align 4
  %187 = icmp eq i32 %186, 0
  br i1 %187, label %188, label %198

188:                                              ; preds = %178
  %189 = load i32, i32* %4, align 4
  %190 = add nsw i32 %189, 1
  %191 = load i32, i32* %2, align 4
  %192 = sext i32 %191 to i64
  %193 = getelementptr inbounds [102 x [102 x i32]], [102 x [102 x i32]]* @room, i64 0, i64 %192
  %194 = load i32, i32* %3, align 4
  %195 = sub nsw i32 %194, 1
  %196 = sext i32 %195 to i64
  %197 = getelementptr inbounds [102 x i32], [102 x i32]* %193, i64 0, i64 %196
  store i32 %190, i32* %197, align 4
  br label %198

198:                                              ; preds = %188, %178
  br label %199

199:                                              ; preds = %198, %108
  br label %200

200:                                              ; preds = %199
  %201 = load i32, i32* %3, align 4
  %202 = add nsw i32 %201, 1
  store i32 %202, i32* %3, align 4
  br label %104

203:                                              ; preds = %104
  br label %204

204:                                              ; preds = %203
  %205 = load i32, i32* %2, align 4
  %206 = add nsw i32 %205, 1
  store i32 %206, i32* %2, align 4
  br label %99

207:                                              ; preds = %99
  br label %208

208:                                              ; preds = %207
  %209 = load i32, i32* %4, align 4
  %210 = add nsw i32 %209, 1
  store i32 %210, i32* %4, align 4
  br label %94

211:                                              ; preds = %94
  store i32 0, i32* @sum, align 4
  store i32 1, i32* %2, align 4
  br label %212

212:                                              ; preds = %238, %211
  %213 = load i32, i32* %2, align 4
  %214 = load i32, i32* @n, align 4
  %215 = icmp sle i32 %213, %214
  br i1 %215, label %216, label %241

216:                                              ; preds = %212
  store i32 1, i32* %3, align 4
  br label %217

217:                                              ; preds = %234, %216
  %218 = load i32, i32* %3, align 4
  %219 = load i32, i32* @n, align 4
  %220 = icmp sle i32 %218, %219
  br i1 %220, label %221, label %237

221:                                              ; preds = %217
  %222 = load i32, i32* %2, align 4
  %223 = sext i32 %222 to i64
  %224 = getelementptr inbounds [102 x [102 x i32]], [102 x [102 x i32]]* @room, i64 0, i64 %223
  %225 = load i32, i32* %3, align 4
  %226 = sext i32 %225 to i64
  %227 = getelementptr inbounds [102 x i32], [102 x i32]* %224, i64 0, i64 %226
  %228 = load i32, i32* %227, align 4
  %229 = icmp sgt i32 %228, 0
  br i1 %229, label %230, label %233

230:                                              ; preds = %221
  %231 = load i32, i32* @sum, align 4
  %232 = add nsw i32 %231, 1
  store i32 %232, i32* @sum, align 4
  br label %233

233:                                              ; preds = %230, %221
  br label %234

234:                                              ; preds = %233
  %235 = load i32, i32* %3, align 4
  %236 = add nsw i32 %235, 1
  store i32 %236, i32* %3, align 4
  br label %217

237:                                              ; preds = %217
  br label %238

238:                                              ; preds = %237
  %239 = load i32, i32* %2, align 4
  %240 = add nsw i32 %239, 1
  store i32 %240, i32* %2, align 4
  br label %212

241:                                              ; preds = %212
  %242 = load i32, i32* @sum, align 4
  %243 = call i32 (i8*, ...) @printf(i8* getelementptr inbounds ([4 x i8], [4 x i8]* @.str.2, i64 0, i64 0), i32 %242)
  ret i32 0
}